; Function Attrs: mustprogress uwtable
define void @_ZNK6casadi18DaeBuilderInternal3allB5cxx11ENS_8CategoryE(ptr dead_on_unwind noalias writable sret(%"class.std::vector") align 8 %0, ptr noundef nonnull readonly align 8 captures(none) dereferenceable(1017) %1, i32 noundef %2) local_unnamed_addr #4 align 2 {
  %4 = getelementptr inbounds nuw i8, ptr %1, i64 760
  %5 = sext i32 %2 to i64
  %6 = getelementptr inbounds nuw i8, ptr %1, i64 768
  %7 = load ptr, ptr %6, align 8, !tbaa !209
  %8 = load ptr, ptr %4, align 8, !tbaa !206
  %9 = ptrtoint ptr %7 to i64
  %10 = ptrtoint ptr %8 to i64
  %11 = sub i64 %9, %10
  %12 = sdiv exact i64 %11, 24
  %.not.i.i.i.i = icmp ugt i64 %12, %5
  br i1 %.not.i.i.i.i, label %_ZNK6casadi18DaeBuilderInternal7indicesENS_8CategoryE.exit, label %13

13:                                               ; preds = %3
  tail call void (ptr, ...) @_ZSt24__throw_out_of_range_fmtPKcz(ptr noundef nonnull @.str.690, i64 noundef %5, i64 noundef %12) #29
  unreachable

_ZNK6casadi18DaeBuilderInternal7indicesENS_8CategoryE.exit: ; preds = %3
  %14 = getelementptr inbounds nuw %"class.std::vector.33", ptr %8, i64 %5
  tail call void @_ZNK6casadi18DaeBuilderInternal4nameB5cxx11ERKSt6vectorImSaImEE(ptr dead_on_unwind writable sret(%"class.std::vector") align 8 %0, ptr noundef nonnull align 8 dereferenceable(1017) %1, ptr noundef nonnull align 8 dereferenceable(24) %14)
  ret void
}